target datalayout = "e-m:e-p270:32:32-p271:32:32-p272:64:64-i64:64-i128:128-f80:128-n8:16:32:64-S128"
target triple = "x86_64-pc-linux-gnu"

%struct.VariableStatData = type { ptr, ptr, ptr, ptr, i32, i32, i32, i8, i8 }
%struct.Node = type { i32 }
%struct.Const = type { %struct.Expr, i32, i32, i32, i32, i64, i8, i8, i32 }
%struct.Expr = type { i32 }
%struct.AttStatsSlot = type { i32, i32, i32, ptr, i32, ptr, i32, ptr, ptr }
%struct.List = type { i32, i32, i32, ptr, [0 x %union.ListCell] }
%union.ListCell = type { ptr }
%struct.RelabelType = type { %struct.Expr, ptr, i32, i32, i32, i32, i32 }
%struct.ArrayType = type { i32, i32, i32, i32 }
%struct.ArrayExpr = type { %struct.Expr, i32, i32, i32, ptr, i8, i32 }
%struct.ArrayCoerceExpr = type { %struct.Expr, ptr, ptr, i32, i32, i32, i32, i32 }

; Function Attrs: inlinehint nounwind uwtable
define internal i32 @list_length(ptr noundef %0) #1 {
  %2 = alloca ptr, align 8
  store ptr %0, ptr %2, align 8
  %3 = load ptr, ptr %2, align 8
  %4 = icmp ne ptr %3, null
  br i1 %4, label %5, label %9

5:                                                ; preds = %1
  %6 = load ptr, ptr %2, align 8
  %7 = getelementptr inbounds nuw %struct.List, ptr %6, i32 0, i32 1
  %8 = load i32, ptr %7, align 4
  br label %10

9:                                                ; preds = %1
  br label %10

10:                                               ; preds = %9, %5
  %11 = phi i32 [ %8, %5 ], [ 0, %9 ]
  ret i32 %11
}

; Function Attrs: inlinehint nounwind uwtable
define internal ptr @DatumGetPointer(i64 noundef %0) #1 {
  %2 = alloca i64, align 8
  store i64 %0, ptr %2, align 8
  %3 = load i64, ptr %2, align 8
  %4 = inttoptr i64 %3 to ptr
  ret ptr %4
}

; Function Attrs: nounwind uwtable
define internal ptr @strip_array_coercion(ptr noundef %0) #0 {
  %2 = alloca ptr, align 8
  %3 = alloca ptr, align 8
  %4 = alloca i32, align 4
  store ptr %0, ptr %2, align 8
  br label %5

5:                                                ; preds = %53, %1
  %6 = load ptr, ptr %2, align 8
  %7 = icmp ne ptr %6, null
  br i1 %7, label %8, label %39

8:                                                ; preds = %5
  %9 = load ptr, ptr %2, align 8
  %10 = getelementptr inbounds nuw %struct.Node, ptr %9, i32 0, i32 0
  %11 = load i32, ptr %10, align 4
  %12 = icmp eq i32 %11, 29
  br i1 %12, label %13, label %39

13:                                               ; preds = %8
  call void @llvm.lifetime.start.p0(i64 8, ptr %3) #10
  %14 = load ptr, ptr %2, align 8
  store ptr %14, ptr %3, align 8
  %15 = load ptr, ptr %3, align 8
  %16 = getelementptr inbounds nuw %struct.ArrayCoerceExpr, ptr %15, i32 0, i32 2
  %17 = load ptr, ptr %16, align 8
  %18 = getelementptr inbounds nuw %struct.Node, ptr %17, i32 0, i32 0
  %19 = load i32, ptr %18, align 4
  %20 = icmp eq i32 %19, 27
  br i1 %20, label %21, label %34

21:                                               ; preds = %13
  %22 = load ptr, ptr %3, align 8
  %23 = getelementptr inbounds nuw %struct.ArrayCoerceExpr, ptr %22, i32 0, i32 2
  %24 = load ptr, ptr %23, align 8
  %25 = getelementptr inbounds nuw %struct.RelabelType, ptr %24, i32 0, i32 1
  %26 = load ptr, ptr %25, align 8
  %27 = getelementptr inbounds nuw %struct.Node, ptr %26, i32 0, i32 0
  %28 = load i32, ptr %27, align 4
  %29 = icmp eq i32 %28, 34
  br i1 %29, label %30, label %34

30:                                               ; preds = %21
  %31 = load ptr, ptr %3, align 8
  %32 = getelementptr inbounds nuw %struct.ArrayCoerceExpr, ptr %31, i32 0, i32 1
  %33 = load ptr, ptr %32, align 8
  store ptr %33, ptr %2, align 8
  br label %35

34:                                               ; preds = %21, %13
  store i32 2, ptr %4, align 4
  br label %36

35:                                               ; preds = %30
  store i32 0, ptr %4, align 4
  br label %36

36:                                               ; preds = %35, %34
  call void @llvm.lifetime.end.p0(i64 8, ptr %3) #10
  %37 = load i32, ptr %4, align 4
  switch i32 %37, label %56 [
    i32 0, label %38
    i32 2, label %54
  ]

38:                                               ; preds = %36
  br label %53

39:                                               ; preds = %8, %5
  %40 = load ptr, ptr %2, align 8
  %41 = icmp ne ptr %40, null
  br i1 %41, label %42, label %51

42:                                               ; preds = %39
  %43 = load ptr, ptr %2, align 8
  %44 = getelementptr inbounds nuw %struct.Node, ptr %43, i32 0, i32 0
  %45 = load i32, ptr %44, align 4
  %46 = icmp eq i32 %45, 27
  br i1 %46, label %47, label %51

47:                                               ; preds = %42
  %48 = load ptr, ptr %2, align 8
  %49 = getelementptr inbounds nuw %struct.RelabelType, ptr %48, i32 0, i32 1
  %50 = load ptr, ptr %49, align 8
  store ptr %50, ptr %2, align 8
  br label %52

51:                                               ; preds = %42, %39
  br label %54

52:                                               ; preds = %47
  br label %53

53:                                               ; preds = %52, %38
  br label %5

54:                                               ; preds = %51, %36
  %55 = load ptr, ptr %2, align 8
  ret ptr %55

56:                                               ; preds = %36
  unreachable
}

; Function Attrs: nounwind uwtable
define dso_local double @estimate_array_length(ptr noundef %0, ptr noundef %1) #0 {
  %3 = alloca double, align 8
  %4 = alloca ptr, align 8
  %5 = alloca ptr, align 8
  %6 = alloca i64, align 8
  %7 = alloca i8, align 1
  %8 = alloca ptr, align 8
  %9 = alloca i32, align 4
  %10 = alloca %struct.VariableStatData, align 8
  %11 = alloca %struct.AttStatsSlot, align 8
  %12 = alloca double, align 8
  store ptr %0, ptr %4, align 8
  store ptr %1, ptr %5, align 8
  %13 = load ptr, ptr %5, align 8
  %14 = call ptr @strip_array_coercion(ptr noundef %13)
  store ptr %14, ptr %5, align 8
  %15 = load ptr, ptr %5, align 8
  %16 = icmp ne ptr %15, null
  br i1 %16, label %17, label %46

17:                                               ; preds = %2
  %18 = load ptr, ptr %5, align 8
  %19 = getelementptr inbounds nuw %struct.Node, ptr %18, i32 0, i32 0
  %20 = load i32, ptr %19, align 4
  %21 = icmp eq i32 %20, 7
  br i1 %21, label %22, label %46

22:                                               ; preds = %17
  call void @llvm.lifetime.start.p0(i64 8, ptr %6) #10
  %23 = load ptr, ptr %5, align 8
  %24 = getelementptr inbounds nuw %struct.Const, ptr %23, i32 0, i32 5
  %25 = load i64, ptr %24, align 8
  store i64 %25, ptr %6, align 8
  call void @llvm.lifetime.start.p0(i64 1, ptr %7) #10
  %26 = load ptr, ptr %5, align 8
  %27 = getelementptr inbounds nuw %struct.Const, ptr %26, i32 0, i32 6
  %28 = load i8, ptr %27, align 8, !range !4, !noundef !5
  %29 = trunc i8 %28 to i1
  %30 = zext i1 %29 to i8
  store i8 %30, ptr %7, align 1
  call void @llvm.lifetime.start.p0(i64 8, ptr %8) #10
  %31 = load i8, ptr %7, align 1, !range !4, !noundef !5
  %32 = trunc i8 %31 to i1
  br i1 %32, label %33, label %34

33:                                               ; preds = %22
  store double 0.000000e+00, ptr %3, align 8
  store i32 1, ptr %9, align 4
  br label %45

34:                                               ; preds = %22
  %35 = load i64, ptr %6, align 8
  %36 = call ptr @DatumGetPointer(i64 noundef %35)
  %37 = call ptr @pg_detoast_datum(ptr noundef %36)
  store ptr %37, ptr %8, align 8
  %38 = load ptr, ptr %8, align 8
  %39 = getelementptr inbounds nuw %struct.ArrayType, ptr %38, i32 0, i32 1
  %40 = load i32, ptr %39, align 4
  %41 = load ptr, ptr %8, align 8
  %42 = getelementptr inbounds nuw i8, ptr %41, i64 16
  %43 = call i32 @ArrayGetNItems(i32 noundef %40, ptr noundef %42)
  %44 = sitofp i32 %43 to double
  store double %44, ptr %3, align 8
  store i32 1, ptr %9, align 4
  br label %45

45:                                               ; preds = %34, %33
  call void @llvm.lifetime.end.p0(i64 8, ptr %8) #10
  call void @llvm.lifetime.end.p0(i64 1, ptr %7) #10
  call void @llvm.lifetime.end.p0(i64 8, ptr %6) #10
  br label %122

46:                                               ; preds = %17, %2
  %47 = load ptr, ptr %5, align 8
  %48 = icmp ne ptr %47, null
  br i1 %48, label %49, label %65

49:                                               ; preds = %46
  %50 = load ptr, ptr %5, align 8
  %51 = getelementptr inbounds nuw %struct.Node, ptr %50, i32 0, i32 0
  %52 = load i32, ptr %51, align 4
  %53 = icmp eq i32 %52, 35
  br i1 %53, label %54, label %65

54:                                               ; preds = %49
  %55 = load ptr, ptr %5, align 8
  %56 = getelementptr inbounds nuw %struct.ArrayExpr, ptr %55, i32 0, i32 5
  %57 = load i8, ptr %56, align 8, !range !4, !noundef !5
  %58 = trunc i8 %57 to i1
  br i1 %58, label %65, label %59

59:                                               ; preds = %54
  %60 = load ptr, ptr %5, align 8
  %61 = getelementptr inbounds nuw %struct.ArrayExpr, ptr %60, i32 0, i32 4
  %62 = load ptr, ptr %61, align 8
  %63 = call i32 @list_length(ptr noundef %62)
  %64 = sitofp i32 %63 to double
  store double %64, ptr %3, align 8
  br label %122

65:                                               ; preds = %54, %49, %46
  %66 = load ptr, ptr %5, align 8
  %67 = icmp ne ptr %66, null
  br i1 %67, label %68, label %119

68:                                               ; preds = %65
  %69 = load ptr, ptr %4, align 8
  %70 = icmp ne ptr %69, null
  br i1 %70, label %71, label %119

71:                                               ; preds = %68
  call void @llvm.lifetime.start.p0(i64 48, ptr %10) #10
  call void @llvm.lifetime.start.p0(i64 64, ptr %11) #10
  call void @llvm.lifetime.start.p0(i64 8, ptr %12) #10
  store double 0.000000e+00, ptr %12, align 8
  %72 = load ptr, ptr %4, align 8
  %73 = load ptr, ptr %5, align 8
  call void @examine_variable(ptr noundef %72, ptr noundef %73, i32 noundef 0, ptr noundef %10)
  %74 = getelementptr inbounds nuw %struct.VariableStatData, ptr %10, i32 0, i32 2
  %75 = load ptr, ptr %74, align 8
  %76 = icmp ne ptr %75, null
  br i1 %76, label %77, label %98

77:                                               ; preds = %71
  %78 = getelementptr inbounds nuw %struct.VariableStatData, ptr %10, i32 0, i32 2
  %79 = load ptr, ptr %78, align 8
  %80 = call zeroext i1 @get_attstatsslot(ptr noundef %11, ptr noundef %79, i32 noundef 5, i32 noundef 0, i32 noundef 2)
  br i1 %80, label %81, label %97

81:                                               ; preds = %77
  %82 = getelementptr inbounds nuw %struct.AttStatsSlot, ptr %11, i32 0, i32 6
  %83 = load i32, ptr %82, align 8
  %84 = icmp sgt i32 %83, 0
  br i1 %84, label %85, label %96

85:                                               ; preds = %81
  %86 = getelementptr inbounds nuw %struct.AttStatsSlot, ptr %11, i32 0, i32 5
  %87 = load ptr, ptr %86, align 8
  %88 = getelementptr inbounds nuw %struct.AttStatsSlot, ptr %11, i32 0, i32 6
  %89 = load i32, ptr %88, align 8
  %90 = sub i32 %89, 1
  %91 = sext i32 %90 to i64
  %92 = getelementptr inbounds float, ptr %87, i64 %91
  %93 = load float, ptr %92, align 4
  %94 = fpext float %93 to double
  %95 = call double @clamp_row_est(double noundef %94)
  store double %95, ptr %12, align 8
  br label %96

96:                                               ; preds = %85, %81
  call void @free_attstatsslot(ptr noundef %11)
  br label %97

97:                                               ; preds = %96, %77
  br label %98

98:                                               ; preds = %97, %71
  br label %99

99:                                               ; preds = %98
  %100 = getelementptr inbounds nuw %struct.VariableStatData, ptr %10, i32 0, i32 2
  %101 = load ptr, ptr %100, align 8
  %102 = icmp ne ptr %101, null
  br i1 %102, label %103, label %108

103:                                              ; preds = %99
  %104 = getelementptr inbounds nuw %struct.VariableStatData, ptr %10, i32 0, i32 3
  %105 = load ptr, ptr %104, align 8
  %106 = getelementptr inbounds nuw %struct.VariableStatData, ptr %10, i32 0, i32 2
  %107 = load ptr, ptr %106, align 8
  call void %105(ptr noundef %107)
  br label %108

108:                                              ; preds = %103, %99
  br label %109

109:                                              ; preds = %108
  br label %110

110:                                              ; preds = %109
  %111 = load double, ptr %12, align 8
  %112 = fcmp ogt double %111, 0.000000e+00
  br i1 %112, label %113, label %115

113:                                              ; preds = %110
  %114 = load double, ptr %12, align 8
  store double %114, ptr %3, align 8
  store i32 1, ptr %9, align 4
  br label %116

115:                                              ; preds = %110
  store i32 0, ptr %9, align 4
  br label %116

116:                                              ; preds = %115, %113
  call void @llvm.lifetime.end.p0(i64 8, ptr %12) #10
  call void @llvm.lifetime.end.p0(i64 64, ptr %11) #10
  call void @llvm.lifetime.end.p0(i64 48, ptr %10) #10
  %117 = load i32, ptr %9, align 4
  switch i32 %117, label %124 [
    i32 0, label %118
    i32 1, label %122
  ]

118:                                              ; preds = %116
  br label %119

119:                                              ; preds = %118, %68, %65
  br label %120

120:                                              ; preds = %119
  br label %121

121:                                              ; preds = %120
  store double 1.000000e+01, ptr %3, align 8
  br label %122

122:                                              ; preds = %121, %116, %59, %45
  %123 = load double, ptr %3, align 8
  ret double %123

124:                                              ; preds = %116
  unreachable
}