; Function Attrs: nounwind uwtable
define dso_local double @estimate_array_length(ptr noundef %0, ptr noundef %1) local_unnamed_addr #0 {
  %3 = alloca %struct.VariableStatData, align 8
  %4 = alloca %struct.AttStatsSlot, align 8
  %.not14.i = icmp eq ptr %1, null
  br i1 %.not14.i, label %.critedge.thread, label %.lr.ph.i

.lr.ph.i:                                         ; preds = %2, %16
  %.01015.i = phi ptr [ %.3.i, %16 ], [ %1, %2 ]
  %5 = load i32, ptr %.01015.i, align 4
  switch i32 %5, label %.critedge [
    i32 29, label %6
    i32 27, label %16
    i32 7, label %17
    i32 35, label %31
  ]

6:                                                ; preds = %.lr.ph.i
  %7 = getelementptr inbounds nuw i8, ptr %.01015.i, i64 16
  %8 = load ptr, ptr %7, align 8
  %9 = load i32, ptr %8, align 4
  %10 = icmp eq i32 %9, 27
  br i1 %10, label %11, label %.critedge

11:                                               ; preds = %6
  %12 = getelementptr inbounds nuw i8, ptr %8, i64 8
  %13 = load ptr, ptr %12, align 8
  %14 = load i32, ptr %13, align 4
  %15 = icmp eq i32 %14, 34
  br i1 %15, label %16, label %.critedge

16:                                               ; preds = %.lr.ph.i, %11
  %.3.in.i = getelementptr inbounds nuw i8, ptr %.01015.i, i64 8
  %.3.i = load ptr, ptr %.3.in.i, align 8
  %.not.i = icmp eq ptr %.3.i, null
  br i1 %.not.i, label %.critedge.thread, label %.lr.ph.i

17:                                               ; preds = %.lr.ph.i
  %18 = getelementptr inbounds nuw i8, ptr %.01015.i, i64 32
  %19 = load i8, ptr %18, align 8, !range !4, !noundef !5
  %20 = trunc nuw i8 %19 to i1
  br i1 %20, label %list_length.exit, label %21

21:                                               ; preds = %17
  %22 = getelementptr inbounds nuw i8, ptr %.01015.i, i64 24
  %23 = load i64, ptr %22, align 8
  %24 = inttoptr i64 %23 to ptr
  %25 = tail call ptr @pg_detoast_datum(ptr noundef %24) #12
  %26 = getelementptr inbounds nuw i8, ptr %25, i64 4
  %27 = load i32, ptr %26, align 4
  %28 = getelementptr inbounds nuw i8, ptr %25, i64 16
  %29 = tail call i32 @ArrayGetNItems(i32 noundef %27, ptr noundef nonnull %28) #12
  %30 = sitofp i32 %29 to double
  br label %list_length.exit

31:                                               ; preds = %.lr.ph.i
  %32 = getelementptr inbounds nuw i8, ptr %.01015.i, i64 24
  %33 = load i8, ptr %32, align 8, !range !4, !noundef !5
  %34 = trunc nuw i8 %33 to i1
  br i1 %34, label %.critedge, label %35

35:                                               ; preds = %31
  %36 = getelementptr inbounds nuw i8, ptr %.01015.i, i64 16
  %37 = load ptr, ptr %36, align 8
  %.not.i31 = icmp eq ptr %37, null
  br i1 %.not.i31, label %list_length.exit, label %38

38:                                               ; preds = %35
  %39 = getelementptr inbounds nuw i8, ptr %37, i64 4
  %40 = load i32, ptr %39, align 4
  %41 = sitofp i32 %40 to double
  br label %list_length.exit

.critedge:                                        ; preds = %11, %6, %.lr.ph.i, %31
  %.not45 = icmp eq ptr %0, null
  br i1 %.not45, label %.critedge.thread, label %42

42:                                               ; preds = %.critedge
  call void @llvm.lifetime.start.p0(i64 48, ptr nonnull %3) #12
  call void @llvm.lifetime.start.p0(i64 64, ptr nonnull %4) #12
  call void @examine_variable(ptr noundef nonnull %0, ptr noundef nonnull %.01015.i, i32 noundef 0, ptr noundef nonnull %3)
  %43 = getelementptr inbounds nuw i8, ptr %3, i64 16
  %44 = load ptr, ptr %43, align 8
  %.not = icmp eq ptr %44, null
  br i1 %.not, label %.thread42, label %45

.thread42:                                        ; preds = %42
  call void @llvm.lifetime.end.p0(i64 64, ptr nonnull %4) #12
  call void @llvm.lifetime.end.p0(i64 48, ptr nonnull %3) #12
  br label %.critedge.thread

45:                                               ; preds = %42
  %46 = call zeroext i1 @get_attstatsslot(ptr noundef nonnull %4, ptr noundef nonnull %44, i32 noundef 5, i32 noundef 0, i32 noundef 2) #12
  br i1 %46, label %47, label %61

47:                                               ; preds = %45
  %48 = getelementptr inbounds nuw i8, ptr %4, i64 40
  %49 = load i32, ptr %48, align 8
  %50 = icmp sgt i32 %49, 0
  br i1 %50, label %51, label %60

51:                                               ; preds = %47
  %52 = getelementptr inbounds nuw i8, ptr %4, i64 32
  %53 = load ptr, ptr %52, align 8
  %54 = zext nneg i32 %49 to i64
  %55 = getelementptr float, ptr %53, i64 %54
  %56 = getelementptr i8, ptr %55, i64 -4
  %57 = load float, ptr %56, align 4
  %58 = fpext float %57 to double
  %59 = call double @clamp_row_est(double noundef %58) #12
  br label %60

60:                                               ; preds = %51, %47
  %.0 = phi double [ %59, %51 ], [ 0.000000e+00, %47 ]
  call void @free_attstatsslot(ptr noundef nonnull %4) #12
  br label %61

61:                                               ; preds = %60, %45
  %.1.ph = phi double [ 0.000000e+00, %45 ], [ %.0, %60 ]
  %.pr38 = load ptr, ptr %43, align 8
  %.not30 = icmp eq ptr %.pr38, null
  br i1 %.not30, label %65, label %62

62:                                               ; preds = %61
  %63 = getelementptr inbounds nuw i8, ptr %3, i64 24
  %64 = load ptr, ptr %63, align 8
  call void %64(ptr noundef nonnull %.pr38) #12
  br label %65

65:                                               ; preds = %62, %61
  %66 = fcmp ule double %.1.ph, 0.000000e+00
  call void @llvm.lifetime.end.p0(i64 64, ptr nonnull %4) #12
  call void @llvm.lifetime.end.p0(i64 48, ptr nonnull %3) #12
  br i1 %66, label %.critedge.thread, label %list_length.exit

.critedge.thread:                                 ; preds = %16, %2, %.thread42, %65, %.critedge
  br label %list_length.exit

list_length.exit:                                 ; preds = %38, %35, %65, %21, %17, %.critedge.thread
  %.123 = phi double [ %.1.ph, %65 ], [ 1.000000e+01, %.critedge.thread ], [ %30, %21 ], [ 0.000000e+00, %17 ], [ %41, %38 ], [ 0.000000e+00, %35 ]
  ret double %.123
}